         U acos@@GLIBC_2.4
         U __aeabi_atexit@@CXXABI_ARM_1.3.3
         U __aeabi_idiv@@GCC_3.5
         U __aeabi_idivmod@@GCC_3.5
         U __aeabi_l2d@@GCC_3.5
         U __aeabi_ldivmod@@GCC_3.5
         U __aeabi_uidiv@@GCC_3.5
         U __aeabi_uidivmod@@GCC_3.5
         U __aeabi_ul2d@@GCC_3.5
         U __aeabi_uldivmod@@GCC_3.5
         U __aeabi_unwind_cpp_pr0@@GCC_3.5
         U __aeabi_unwind_cpp_pr1@@GCC_3.5
         U asin@@GLIBC_2.4
         U atof@@GLIBC_2.4
         U close@@GLIBC_2.4
         U cos@@GLIBC_2.4
         U __cxa_allocate_exception@@CXXABI_1.3
         U __cxa_begin_catch@@CXXABI_1.3
         U __cxa_call_unexpected@@CXXABI_1.3
         U __cxa_end_catch@@CXXABI_1.3
         U __cxa_end_cleanup@@CXXABI_1.3
         U __cxa_free_exception@@CXXABI_1.3
         U __cxa_guard_abort@@CXXABI_1.3
         U __cxa_guard_acquire@@CXXABI_1.3
         U __cxa_guard_release@@CXXABI_1.3
         U __cxa_pure_virtual@@CXXABI_1.3
         U __cxa_rethrow@@CXXABI_1.3
         U __cxa_throw@@CXXABI_1.3
         U __errno_location@@GLIBC_2.4
         U fclose@@GLIBC_2.4
         U fflush@@GLIBC_2.4
         U fopen@@GLIBC_2.4
         U __fprintf_chk@@GLIBC_2.4
         U fputs@@GLIBC_2.4
         U fread@@GLIBC_2.4
         U free@@GLIBC_2.4
         U fseek@@GLIBC_2.4
         U fwrite@@GLIBC_2.4
         U __gxx_personality_v0@@CXXABI_1.3
         U __isoc99_fscanf@@GLIBC_2.7
         U localeconv@@GLIBC_2.4
         U malloc@@GLIBC_2.4
         U memcmp@@GLIBC_2.4
         U memcpy@@GLIBC_2.4
         U memmove@@GLIBC_2.4
         U memset@@GLIBC_2.4
         U mmap@@GLIBC_2.4
         U munmap@@GLIBC_2.4
         U open@@GLIBC_2.4
         U realloc@@GLIBC_2.4
         U roundf@@GLIBC_2.4
         U round@@GLIBC_2.4
         U rpApp_Release
         U sin@@GLIBC_2.4
         U __snprintf_chk@@GLIBC_2.4
         U snprintf@@GLIBC_2.4
         U __sprintf_chk@@GLIBC_2.4
         U srd_decoder_load
         U srd_decoder_unload_all
         U srd_exit
         U srd_init
         U srd_inst_new
         U srd_lib_version_string_get
         U srd_session_new
         U __stack_chk_fail@@GLIBC_2.4
         U __stack_chk_guard@@GLIBC_2.4
         U stderr@@GLIBC_2.4
         U strcmp@@GLIBC_2.4
         U strlen@@GLIBC_2.4
         U strtod@@GLIBC_2.4
         U strtol@@GLIBC_2.4
         U strtoll@@GLIBC_2.4
         U strtoull@@GLIBC_2.4
         U sysconf@@GLIBC_2.4
         U usleep@@GLIBC_2.4
         U __vfprintf_chk@@GLIBC_2.4
         U _ZdlPv@@GLIBCXX_3.4
         U _ZdlPvj@@CXXABI_1.3.9
         U _ZN16SRDChosenOptions9setOptionENSt7__cxx1112basic_stringIcSt11char_traitsIcESaIcEEES5_
         U _ZN6loguru12add_callbackEPKcPFvPvRKNS_7MessageEES2_iPFvS2_ES9_
         U _ZN6loguru24current_verbosity_cutoffEv
         U _ZN6loguru3logEiPKcjS1_z
         U _ZN8CryptoPP11StringStore11TransferTo2ERNS_22BufferedTransformationERyRKNSt7__cxx1112basic_stringIcSt11char_traitsIcESaIcEEEb
         U _ZN8CryptoPP11StringStore15StoreInitializeERKNS_14NameValuePairsE
         U _ZN8CryptoPP15DEFAULT_CHANNELB5cxx11E
         U _ZN8CryptoPP18StringSinkTemplateINSt7__cxx1112basic_stringIcSt11char_traitsIcESaIcEEEEC1ERS6_
         U _ZN8CryptoPP19AlgorithmParametersC1ERKS0_
         U _ZN8CryptoPP19AlgorithmParametersC1Ev
         U _ZN8CryptoPP19UnalignedDeallocateEPv
         U _ZN8CryptoPP22BufferedTransformation11ChannelPut2ERKNSt7__cxx1112basic_stringIcSt11char_traitsIcESaIcEEEPKhjib
         U _ZN8CryptoPP22BufferedTransformation12ChannelFlushERKNSt7__cxx1112basic_stringIcSt11char_traitsIcESaIcEEEbib
         U _ZN8CryptoPP22BufferedTransformation12SkipMessagesEj
         U _ZN8CryptoPP22BufferedTransformation14GetNextMessageEv
         U _ZN8CryptoPP22BufferedTransformation14GetWaitObjectsERNS_19WaitObjectContainerERKNS_9CallStackE
         U _ZN8CryptoPP22BufferedTransformation14TransferAllTo2ERS0_RKNSt7__cxx1112basic_stringIcSt11char_traitsIcESaIcEEEb
         U _ZN8CryptoPP22BufferedTransformation19SetRetrievalChannelERKNSt7__cxx1112basic_stringIcSt11char_traitsIcESaIcEEE
         U _ZN8CryptoPP22BufferedTransformation19TransferMessagesTo2ERS0_RjRKNSt7__cxx1112basic_stringIcSt11char_traitsIcESaIcEEEb
         U _ZN8CryptoPP22BufferedTransformation21ChannelCreatePutSpaceERKNSt7__cxx1112basic_stringIcSt11char_traitsIcESaIcEEERj
         U _ZN8CryptoPP22BufferedTransformation21ChannelPutModifiable2ERKNSt7__cxx1112basic_stringIcSt11char_traitsIcESaIcEEEPhjib
         U _ZN8CryptoPP22BufferedTransformation23ChannelMessageSeriesEndERKNSt7__cxx1112basic_stringIcSt11char_traitsIcESaIcEEEib
         U _ZN8CryptoPP22BufferedTransformation3GetEPhj
         U _ZN8CryptoPP22BufferedTransformation3GetERh
         U _ZN8CryptoPP22BufferedTransformation4SkipEy
         U _ZN8CryptoPP22BufferedTransformation6AttachEPS0_
         U _ZN8CryptoPP22BufferedTransformation7SkipAllEv
         U _ZN8CryptoPP27AlgorithmParametersTemplateINS_23ConstByteArrayParameterEEC1EPKcRKS1_b
         U _ZN8CryptoPP5CRC32C1Ev
         U _ZN8CryptoPP6Filter10InitializeERKNS_14NameValuePairsEi
         U _ZN8CryptoPP6Filter11TransferTo2ERNS_22BufferedTransformationERyRKNSt7__cxx1112basic_stringIcSt11char_traitsIcESaIcEEEb
         U _ZN8CryptoPP6Filter16MessageSeriesEndEib
         U _ZN8CryptoPP6Filter22AttachedTransformationEv
         U _ZN8CryptoPP6Filter5FlushEbib
         U _ZN8CryptoPP6Filter6DetachEPNS_22BufferedTransformationE
         U _ZN8CryptoPP6FilterC2EPNS_22BufferedTransformationE
         U _ZN8CryptoPP8DeflatorC2EPNS_22BufferedTransformationEiib
         U _ZN8CryptoPP9AlgorithmC2Eb
         U _ZNK8CryptoPP22BufferedTransformation11AnyMessagesEv
         U _ZNK8CryptoPP22BufferedTransformation14AnyRetrievableEv
         U _ZNK8CryptoPP22BufferedTransformation14MaxRetrievableEv
         U _ZNK8CryptoPP22BufferedTransformation16NumberOfMessagesEv
         U _ZNK8CryptoPP22BufferedTransformation21GetMaxWaitObjectCountEv
         U _ZNK8CryptoPP22BufferedTransformation21TotalBytesRetrievableEv
         U _ZNK8CryptoPP22BufferedTransformation4PeekEPhj
         U _ZNK8CryptoPP22BufferedTransformation4PeekERh
         U _ZNK8CryptoPP6Filter12CopyRangeTo2ERNS_22BufferedTransformationERyyRKNSt7__cxx1112basic_stringIcSt11char_traitsIcESaIcEEEb
         U _ZNK8CryptoPP6Filter20NewDefaultAttachmentEv
         U _ZNK8CryptoPP6Filter22AttachedTransformationEv
         U _ZNKSt13runtime_error4whatEv@@GLIBCXX_3.4
         U _ZNKSt7__cxx1112basic_stringIcSt11char_traitsIcESaIcEE17find_first_not_ofEPKcj@@GLIBCXX_3.4.21
         U _ZNKSt7__cxx1112basic_stringIcSt11char_traitsIcESaIcEE4findEcj@@GLIBCXX_3.4.21
         U _ZNKSt7__cxx1112basic_stringIcSt11char_traitsIcESaIcEE7compareEPKc@@GLIBCXX_3.4.21
         U _ZNKSt7__cxx1112basic_stringIcSt11char_traitsIcESaIcEE7compareERKS4_@@GLIBCXX_3.4.21
         U _ZNKSt9type_infoeqERKS_@@GLIBCXX_3.4
         U _ZNSt12out_of_rangeC1ERKNSt7__cxx1112basic_stringIcSt11char_traitsIcESaIcEEE@@GLIBCXX_3.4.21
         U _ZNSt12out_of_rangeD1Ev@@GLIBCXX_3.4
         U _ZNSt13runtime_errorC1EPKc@@GLIBCXX_3.4.21
         U _ZNSt13runtime_errorC1ERKS_@@GLIBCXX_3.4.21
         U _ZNSt13runtime_errorD1Ev@@GLIBCXX_3.4
         U _ZNSt16invalid_argumentC1ERKNSt7__cxx1112basic_stringIcSt11char_traitsIcESaIcEEE@@GLIBCXX_3.4.21
         U _ZNSt16invalid_argumentD1Ev@@GLIBCXX_3.4
         U _ZNSt7__cxx1112basic_stringIcSt11char_traitsIcESaIcEE10_M_disposeEv@@GLIBCXX_3.4.21
         U _ZNSt7__cxx1112basic_stringIcSt11char_traitsIcESaIcEE12_M_constructEjc@@GLIBCXX_3.4.21
         U _ZNSt7__cxx1112basic_stringIcSt11char_traitsIcESaIcEE13_S_copy_charsEPcPKcS7_@@GLIBCXX_3.4.21
         U _ZNSt7__cxx1112basic_stringIcSt11char_traitsIcESaIcEE13_S_copy_charsEPcS5_S5_@@GLIBCXX_3.4.21
         U _ZNSt7__cxx1112basic_stringIcSt11char_traitsIcESaIcEE4swapERS4_@@GLIBCXX_3.4.21
         U _ZNSt7__cxx1112basic_stringIcSt11char_traitsIcESaIcEE6appendEPKc@@GLIBCXX_3.4.21
         U _ZNSt7__cxx1112basic_stringIcSt11char_traitsIcESaIcEE6appendEPKcj@@GLIBCXX_3.4.21
         U _ZNSt7__cxx1112basic_stringIcSt11char_traitsIcESaIcEE6appendERKS4_@@GLIBCXX_3.4.21
         U _ZNSt7__cxx1112basic_stringIcSt11char_traitsIcESaIcEE6insertEjPKc@@GLIBCXX_3.4.21
         U _ZNSt7__cxx1112basic_stringIcSt11char_traitsIcESaIcEE6insertEjRKS4_@@GLIBCXX_3.4.21
         U _ZNSt7__cxx1112basic_stringIcSt11char_traitsIcESaIcEE6resizeEjc@@GLIBCXX_3.4.21
         U _ZNSt7__cxx1112basic_stringIcSt11char_traitsIcESaIcEE7replaceEN9__gnu_cxx17__normal_iteratorIPKcS4_EES9_NS6_IPcS4_EESB_@@GLIBCXX_3.4.21
         U _ZNSt7__cxx1112basic_stringIcSt11char_traitsIcESaIcEE7replaceEN9__gnu_cxx17__normal_iteratorIPKcS4_EES9_S9_S9_@@GLIBCXX_3.4.21
         U _ZNSt7__cxx1112basic_stringIcSt11char_traitsIcESaIcEE7reserveEj@@GLIBCXX_3.4.21
         U _ZNSt7__cxx1112basic_stringIcSt11char_traitsIcESaIcEE9_M_appendEPKcj@@GLIBCXX_3.4.21
         U _ZNSt7__cxx1112basic_stringIcSt11char_traitsIcESaIcEE9_M_assignERKS4_@@GLIBCXX_3.4.21
         U _ZNSt7__cxx1112basic_stringIcSt11char_traitsIcESaIcEE9_M_createERjj@@GLIBCXX_3.4.21
         U _ZNSt7__cxx1112basic_stringIcSt11char_traitsIcESaIcEE9push_backEc@@GLIBCXX_3.4.21
         U _ZNSt7__cxx1112basic_stringIcSt11char_traitsIcESaIcEEaSEOS4_@@GLIBCXX_3.4.21
         U _ZNSt7__cxx1112basic_stringIcSt11char_traitsIcESaIcEEC1EOS4_@@GLIBCXX_3.4.21
         U _ZNSt7__cxx1112basic_stringIcSt11char_traitsIcESaIcEEC1EPKcRKS3_@@GLIBCXX_3.4.21
         U _ZNSt7__cxx1112basic_stringIcSt11char_traitsIcESaIcEEC1ERKS4_@@GLIBCXX_3.4.21
         U _ZNSt7__cxx1112basic_stringIcSt11char_traitsIcESaIcEED1Ev@@GLIBCXX_3.4.21
         U _ZNSt7__cxx1112basic_stringIcSt11char_traitsIcESaIcEEpLEPKc@@GLIBCXX_3.4.21
         U _ZNSt7__cxx1112basic_stringIcSt11char_traitsIcESaIcEEpLERKS4_@@GLIBCXX_3.4.21
         U _ZNSt8__detail15_List_node_base7_M_hookEPS0_@@GLIBCXX_3.4.15
         U _ZNSt8__detail15_List_node_base9_M_unhookEv@@GLIBCXX_3.4.15
         U _ZNSt8ios_base4InitC1Ev@@GLIBCXX_3.4
         U _ZNSt8ios_base4InitD1Ev@@GLIBCXX_3.4
         U _ZNSt9exceptionD2Ev@@GLIBCXX_3.4
         U _Znwj@@GLIBCXX_3.4
         U _ZSt17__throw_bad_allocv@@GLIBCXX_3.4
         U _ZSt18_Rb_tree_decrementPSt18_Rb_tree_node_base@@GLIBCXX_3.4
         U _ZSt18_Rb_tree_incrementPKSt18_Rb_tree_node_base@@GLIBCXX_3.4
         U _ZSt18_Rb_tree_incrementPSt18_Rb_tree_node_base@@GLIBCXX_3.4
         U _ZSt19__throw_logic_errorPKc@@GLIBCXX_3.4
         U _ZSt20__throw_length_errorPKc@@GLIBCXX_3.4
         U _ZSt20__throw_out_of_rangePKc@@GLIBCXX_3.4
         U _ZSt24__throw_invalid_argumentPKc@@GLIBCXX_3.4
         U _ZSt25__throw_bad_function_callv@@GLIBCXX_3.4.14
         U _ZSt28_Rb_tree_rebalance_for_erasePSt18_Rb_tree_node_baseRS_@@GLIBCXX_3.4
         U _ZSt29_Rb_tree_insert_and_rebalancebPSt18_Rb_tree_node_baseS0_RS_@@GLIBCXX_3.4
         U _ZThn4_N8CryptoPP22BufferedTransformation14GetWaitObjectsERNS_19WaitObjectContainerERKNS_9CallStackE
         U _ZThn4_NK8CryptoPP22BufferedTransformation21GetMaxWaitObjectCountEv
         U _ZTIN8CryptoPP6FilterE
         U _ZTIN8CryptoPP6SourceE
         U _ZTISt12out_of_range@@GLIBCXX_3.4
         U _ZTISt16invalid_argument@@GLIBCXX_3.4
         U _ZTISt9exception@@GLIBCXX_3.4
         U _ZTVN10__cxxabiv117__class_type_infoE@@CXXABI_1.3
         U _ZTVN10__cxxabiv120__si_class_type_infoE@@CXXABI_1.3
         U _ZTVN8CryptoPP11StringStoreE
         U _ZTVN8CryptoPP19AlgorithmParametersE
         U _ZTVN8CryptoPP4GzipE
         U _ZTVN8CryptoPP6FilterE
         U _ZTVN8CryptoPP6SourceE
         U _ZTVN8CryptoPP8DeflatorE
